(dp1
S'output'
p2
S"<type 'exceptions.TypeError'> __init__() takes exactly 3 arguments (2 given)"
p3
sS'layer'
p4
S'/home/roshan/web2py/applications/comparedb/controllers/default.py'
p5
sS'code'
p6
S'# -*- coding: utf-8 -*-\n# this file is released under public domain and you can use without limitations\n\n# -------------------------------------------------------------------------\n# This is a sample controller\n# - index is the default action of any application\n# - user is required for authentication and authorization\n# - download is for downloading files uploaded in the db (does streaming)\n# -------------------------------------------------------------------------\nfrom  applications.comparedb.modules.DbDifference import *\nfrom new1 import *\n\ndef index():\n    """\n    example action using the internationalization operator T and flash\n    rendered by views/default/index.html or views/generic.html\n\n    if you need a simple wiki simply replace the two lines below with:\n    return auth.wiki()\n    """\n    #response.flash = T("Hello World")\n    return dict(message=T(\'A simple app to compare two databases\'))\n\n\ndef user():\n    """\n    exposes:\n    http://..../[app]/default/user/login\n    http://..../[app]/default/user/logout\n    http://..../[app]/default/user/register\n    http://..../[app]/default/user/profile\n    http://..../[app]/default/user/retrieve_password\n    http://..../[app]/default/user/change_password\n    http://..../[app]/default/user/bulk_register\n    use @auth.requires_login()\n        @auth.requires_membership(\'group name\')\n        @auth.requires_permission(\'read\',\'table name\',record_id)\n    to decorate functions that need access control\n    also notice there is http://..../[app]/appadmin/manage/auth to allow administrator to manage users\n    """\n    return dict(form=auth())\n\n\n@cache.action()\ndef download():\n    """\n    allows downloading of uploaded files\n    http://..../[app]/default/download/[filename]\n    """\n    return response.download(request, db)\n\n\ndef call():\n    """\n    exposes services. for example:\n    http://..../[app]/default/call/jsonrpc\n    decorate with @services.jsonrpc the functions to expose\n    supports xml, json, xmlrpc, jsonrpc, amfrpc, rss, csv\n    """\n    return service()\n\ndef enter():\n    s = Contact(2)\n    form = SQLFORM.factory(Field(\'db1\',\n                                 label=\'Enter name of First DB?\',\n                                 requires=IS_NOT_EMPTY()),\n                          Field(\'user1\',\n                                 label=\'Enter Username for First DB?\',\n                                 requires=IS_NOT_EMPTY()),\n                           Field(\'password1\',\n                                 label=\'Enter Password for First DB?\',type = "password",\n                                 requires=IS_NOT_EMPTY()),\n                           Field(\'db2\',\n                                 label=\'Enter name of Second DB?\',\n                                 requires=IS_NOT_EMPTY()),\n                           Field(\'user2\',\n                                 label=\'Enter Username for Second DB?\',\n                                 requires=IS_NOT_EMPTY()),\n                           Field(\'password2\',\n                                 label=\'Enter Password for Second DB?\',type = "password",\n                                 requires=IS_NOT_EMPTY()),\n                          )\n    form.element(\'input[name=(user1)\')[\'_style\']=\'width:150px\'\n    form.element(\'input[name=(db1)\')[\'_style\']=\'width:150px\'\n    form.element(\'input[name=(password1)\')[\'_style\']=\'width:150px\'\n    form.element(\'input[name=(user2)\')[\'_style\']=\'width:150px\'\n    form.element(\'input[name=(db2)\')[\'_style\']=\'width:150px\'\n    form.element(\'input[name=(password2)\')[\'_style\']=\'width:150px\'\n    \n    string1 = \'\'\n    string2 = \'\'\n    if form.process().accepted:\n        string1= \'mysql://\'+ form.vars.user1 + \':\' +form.vars.password1 + \'@localhost/\' + form.vars.db1\n        string2= \'mysql://\'+ form.vars.user2 + \':\' +form.vars.password2 + \'@localhost/\' + form.vars.db2\n        try:\n            \n            db1 = DAL(string1,\n             pool_size=20,\n             migrate_enabled=False,\n             check_reserved=[\'all\'])\n            db2 = DAL(string2,\n              pool_size=20,\n              migrate_enabled=False,\n              check_reserved=[\'all\'])\n            session.error = ""\n            tables = {}\n            tables = list(db1.executesql(\'show tables\'))\n            tablelist1=[element for tupl in tables for element in tupl]\n            firstdblist = {}\n            for table in tablelist1:\n                query = "describe " + table\n                firstdblist[table] = list(db1.executesql(query))\n            tables = {}\n            tables = list(db2.executesql(\'show tables\'))\n            tablelist2=[element for tupl in tables for element in tupl]\n            seconddblist = {}\n            for table in tablelist2:\n                query = "describe " + table\n                seconddblist[table] = list(db2.executesql(query))\n            #differ =GenarateDbDiff()\n            #print differ.fmisprod\n            #print differ.fmisstage\n            \n        except Exception as e:\n            print e\n            session.error = "Unable to connect. Please enter valid Credentials."\n            redirect(URL(\'second\'))\n        \n        redirect(URL(\'second\'))\n    return dict(form=form)\ndef second():\n    return dict()\n\nresponse._vars=response._caller(enter)\n'
p7
sS'snapshot'
p8
(dp9
sS'traceback'
p10
S'Traceback (most recent call last):\n  File "/home/roshan/web2py/gluon/restricted.py", line 227, in restricted\n    exec ccode in environment\n  File "/home/roshan/web2py/applications/comparedb/controllers/default.py", line 134, in <module>\n  File "/home/roshan/web2py/gluon/globals.py", line 417, in <lambda>\n    self._caller = lambda f: f()\n  File "/home/roshan/web2py/applications/comparedb/controllers/default.py", line 63, in enter\n    s = Contact(2)\nTypeError: __init__() takes exactly 3 arguments (2 given)\n'
p11
s.